target datalayout = "e-m:e-p270:32:32-p271:32:32-p272:64:64-i64:64-i128:128-f80:128-n8:16:32:64-S128"
target triple = "x86_64-pc-linux-gnu"

%struct.ComplexDateData = type { i32, i32, i64, float, i32, i32, i32, i32, i64 }

; Function Attrs: inlinehint nounwind sspstrong uwtable
define internal void @df_to_time(i32 noundef %0, ptr noundef %1, ptr noundef %2, ptr noundef %3) #3 {
  %5 = alloca i32, align 4
  %6 = alloca ptr, align 8
  %7 = alloca ptr, align 8
  %8 = alloca ptr, align 8
  store i32 %0, ptr %5, align 4, !tbaa !19
  store ptr %1, ptr %6, align 8, !tbaa !71
  store ptr %2, ptr %7, align 8, !tbaa !71
  store ptr %3, ptr %8, align 8, !tbaa !71
  %9 = load i32, ptr %5, align 4, !tbaa !19
  %10 = sdiv i32 %9, 3600
  %11 = load ptr, ptr %6, align 8, !tbaa !71
  store i32 %10, ptr %11, align 4, !tbaa !19
  %12 = load i32, ptr %5, align 4, !tbaa !19
  %13 = srem i32 %12, 3600
  store i32 %13, ptr %5, align 4, !tbaa !19
  %14 = load i32, ptr %5, align 4, !tbaa !19
  %15 = sdiv i32 %14, 60
  %16 = load ptr, ptr %7, align 8, !tbaa !71
  store i32 %15, ptr %16, align 4, !tbaa !19
  %17 = load i32, ptr %5, align 4, !tbaa !19
  %18 = srem i32 %17, 60
  %19 = load ptr, ptr %8, align 8, !tbaa !71
  store i32 %18, ptr %19, align 4, !tbaa !19
  ret void
}

; Function Attrs: inlinehint nounwind sspstrong uwtable
define internal i32 @df_utc_to_local(i32 noundef %0, i32 noundef %1) #3 {
  %3 = alloca i32, align 4
  %4 = alloca i32, align 4
  store i32 %0, ptr %3, align 4, !tbaa !19
  store i32 %1, ptr %4, align 4, !tbaa !19
  %5 = load i32, ptr %4, align 4, !tbaa !19
  %6 = load i32, ptr %3, align 4, !tbaa !19
  %7 = add nsw i32 %6, %5
  store i32 %7, ptr %3, align 4, !tbaa !19
  %8 = load i32, ptr %3, align 4, !tbaa !19
  %9 = icmp slt i32 %8, 0
  br i1 %9, label %10, label %13

10:                                               ; preds = %2
  %11 = load i32, ptr %3, align 4, !tbaa !19
  %12 = add nsw i32 %11, 86400
  store i32 %12, ptr %3, align 4, !tbaa !19
  br label %20

13:                                               ; preds = %2
  %14 = load i32, ptr %3, align 4, !tbaa !19
  %15 = icmp sge i32 %14, 86400
  br i1 %15, label %16, label %19

16:                                               ; preds = %13
  %17 = load i32, ptr %3, align 4, !tbaa !19
  %18 = sub nsw i32 %17, 86400
  store i32 %18, ptr %3, align 4, !tbaa !19
  br label %19

19:                                               ; preds = %16, %13
  br label %20

20:                                               ; preds = %19, %10
  %21 = load i32, ptr %3, align 4, !tbaa !19
  ret i32 %21
}

; Function Attrs: inlinehint nounwind sspstrong uwtable
define internal i32 @jd_local_to_utc(i32 noundef %0, i32 noundef %1, i32 noundef %2) #3 {
  %4 = alloca i32, align 4
  %5 = alloca i32, align 4
  %6 = alloca i32, align 4
  store i32 %0, ptr %4, align 4, !tbaa !19
  store i32 %1, ptr %5, align 4, !tbaa !19
  store i32 %2, ptr %6, align 4, !tbaa !19
  %7 = load i32, ptr %6, align 4, !tbaa !19
  %8 = load i32, ptr %5, align 4, !tbaa !19
  %9 = sub nsw i32 %8, %7
  store i32 %9, ptr %5, align 4, !tbaa !19
  %10 = load i32, ptr %5, align 4, !tbaa !19
  %11 = icmp slt i32 %10, 0
  br i1 %11, label %12, label %15

12:                                               ; preds = %3
  %13 = load i32, ptr %4, align 4, !tbaa !19
  %14 = sub nsw i32 %13, 1
  store i32 %14, ptr %4, align 4, !tbaa !19
  br label %22

15:                                               ; preds = %3
  %16 = load i32, ptr %5, align 4, !tbaa !19
  %17 = icmp sge i32 %16, 86400
  br i1 %17, label %18, label %21

18:                                               ; preds = %15
  %19 = load i32, ptr %4, align 4, !tbaa !19
  %20 = add nsw i32 %19, 1
  store i32 %20, ptr %4, align 4, !tbaa !19
  br label %21

21:                                               ; preds = %18, %15
  br label %22

22:                                               ; preds = %21, %12
  %23 = load i32, ptr %4, align 4, !tbaa !19
  ret i32 %23
}

; Function Attrs: inlinehint nounwind sspstrong uwtable
define internal i32 @time_to_df(i32 noundef %0, i32 noundef %1, i32 noundef %2) #3 {
  %4 = alloca i32, align 4
  %5 = alloca i32, align 4
  %6 = alloca i32, align 4
  store i32 %0, ptr %4, align 4, !tbaa !19
  store i32 %1, ptr %5, align 4, !tbaa !19
  store i32 %2, ptr %6, align 4, !tbaa !19
  %7 = load i32, ptr %4, align 4, !tbaa !19
  %8 = mul nsw i32 %7, 3600
  %9 = load i32, ptr %5, align 4, !tbaa !19
  %10 = mul nsw i32 %9, 60
  %11 = add nsw i32 %8, %10
  %12 = load i32, ptr %6, align 4, !tbaa !19
  %13 = add nsw i32 %11, %12
  ret i32 %13
}

; Function Attrs: inlinehint nounwind sspstrong uwtable
define internal void @get_c_time(ptr noundef %0) #3 {
  %2 = alloca ptr, align 8
  %3 = alloca i32, align 4
  %4 = alloca i32, align 4
  %5 = alloca i32, align 4
  %6 = alloca i32, align 4
  %7 = alloca i32, align 4
  %8 = alloca i32, align 4
  store ptr %0, ptr %2, align 8, !tbaa !27
  %9 = load ptr, ptr %2, align 8, !tbaa !27
  %10 = load i32, ptr %9, align 8, !tbaa !38
  %11 = and i32 %10, 8
  %12 = icmp ne i32 %11, 0
  br i1 %12, label %52, label %13

13:                                               ; preds = %1
  call void @llvm.lifetime.start.p0(i64 4, ptr %3) #23
  call void @llvm.lifetime.start.p0(i64 4, ptr %4) #23
  call void @llvm.lifetime.start.p0(i64 4, ptr %5) #23
  call void @llvm.lifetime.start.p0(i64 4, ptr %6) #23
  call void @llvm.lifetime.start.p0(i64 4, ptr %7) #23
  call void @llvm.lifetime.start.p0(i64 4, ptr %8) #23
  %14 = load ptr, ptr %2, align 8, !tbaa !27
  %15 = getelementptr inbounds nuw %struct.ComplexDateData, ptr %14, i32 0, i32 5
  %16 = load i32, ptr %15, align 8, !tbaa !38
  %17 = lshr i32 %16, 22
  %18 = and i32 %17, 15
  store i32 %18, ptr %4, align 4, !tbaa !19
  %19 = load ptr, ptr %2, align 8, !tbaa !27
  %20 = getelementptr inbounds nuw %struct.ComplexDateData, ptr %19, i32 0, i32 5
  %21 = load i32, ptr %20, align 8, !tbaa !38
  %22 = lshr i32 %21, 17
  %23 = and i32 %22, 31
  store i32 %23, ptr %5, align 4, !tbaa !19
  %24 = load ptr, ptr %2, align 8, !tbaa !27
  %25 = getelementptr inbounds nuw %struct.ComplexDateData, ptr %24, i32 0, i32 6
  %26 = load i32, ptr %25, align 4, !tbaa !38
  %27 = load ptr, ptr %2, align 8, !tbaa !27
  %28 = getelementptr inbounds nuw %struct.ComplexDateData, ptr %27, i32 0, i32 7
  %29 = load i32, ptr %28, align 8, !tbaa !38
  %30 = call i32 @df_utc_to_local(i32 noundef %26, i32 noundef %29)
  store i32 %30, ptr %3, align 4, !tbaa !19
  %31 = load i32, ptr %3, align 4, !tbaa !19
  call void @df_to_time(i32 noundef %31, ptr noundef %6, ptr noundef %7, ptr noundef %8)
  %32 = load i32, ptr %4, align 4, !tbaa !19
  %33 = shl i32 %32, 22
  %34 = load i32, ptr %5, align 4, !tbaa !19
  %35 = shl i32 %34, 17
  %36 = or i32 %33, %35
  %37 = load i32, ptr %6, align 4, !tbaa !19
  %38 = shl i32 %37, 12
  %39 = or i32 %36, %38
  %40 = load i32, ptr %7, align 4, !tbaa !19
  %41 = shl i32 %40, 6
  %42 = or i32 %39, %41
  %43 = load i32, ptr %8, align 4, !tbaa !19
  %44 = shl i32 %43, 0
  %45 = or i32 %42, %44
  %46 = load ptr, ptr %2, align 8, !tbaa !27
  %47 = getelementptr inbounds nuw %struct.ComplexDateData, ptr %46, i32 0, i32 5
  store i32 %45, ptr %47, align 8, !tbaa !38
  %48 = load ptr, ptr %2, align 8, !tbaa !27
  %49 = getelementptr inbounds nuw %struct.ComplexDateData, ptr %48, i32 0, i32 0
  %50 = load i32, ptr %49, align 8, !tbaa !38
  %51 = or i32 %50, 8
  store i32 %51, ptr %49, align 8, !tbaa !38
  call void @llvm.lifetime.end.p0(i64 4, ptr %8) #23
  call void @llvm.lifetime.end.p0(i64 4, ptr %7) #23
  call void @llvm.lifetime.end.p0(i64 4, ptr %6) #23
  call void @llvm.lifetime.end.p0(i64 4, ptr %5) #23
  call void @llvm.lifetime.end.p0(i64 4, ptr %4) #23
  call void @llvm.lifetime.end.p0(i64 4, ptr %3) #23
  br label %52

52:                                               ; preds = %13, %1
  ret void
}

; Function Attrs: nounwind sspstrong uwtable
define internal void @c_civil_to_jd(i32 noundef %0, i32 noundef %1, i32 noundef %2, double noundef %3, ptr noundef %4, ptr noundef %5) #0 {
  %7 = alloca i32, align 4
  %8 = alloca i32, align 4
  %9 = alloca i32, align 4
  %10 = alloca double, align 8
  %11 = alloca ptr, align 8
  %12 = alloca ptr, align 8
  %13 = alloca double, align 8
  %14 = alloca double, align 8
  %15 = alloca double, align 8
  store i32 %0, ptr %7, align 4, !tbaa !19
  store i32 %1, ptr %8, align 4, !tbaa !19
  store i32 %2, ptr %9, align 4, !tbaa !19
  store double %3, ptr %10, align 8, !tbaa !10
  store ptr %4, ptr %11, align 8, !tbaa !71
  store ptr %5, ptr %12, align 8, !tbaa !71
  call void @llvm.lifetime.start.p0(i64 8, ptr %13) #23
  call void @llvm.lifetime.start.p0(i64 8, ptr %14) #23
  call void @llvm.lifetime.start.p0(i64 8, ptr %15) #23
  %16 = load i32, ptr %8, align 4, !tbaa !19
  %17 = icmp sle i32 %16, 2
  br i1 %17, label %18, label %23

18:                                               ; preds = %6
  %19 = load i32, ptr %7, align 4, !tbaa !19
  %20 = sub nsw i32 %19, 1
  store i32 %20, ptr %7, align 4, !tbaa !19
  %21 = load i32, ptr %8, align 4, !tbaa !19
  %22 = add nsw i32 %21, 12
  store i32 %22, ptr %8, align 4, !tbaa !19
  br label %23

23:                                               ; preds = %18, %6
  %24 = load i32, ptr %7, align 4, !tbaa !19
  %25 = sitofp i32 %24 to double
  %26 = fdiv double %25, 1.000000e+02
  %27 = call double @llvm.floor.f64(double %26)
  store double %27, ptr %13, align 8, !tbaa !10
  %28 = load double, ptr %13, align 8, !tbaa !10
  %29 = fsub double 2.000000e+00, %28
  %30 = load double, ptr %13, align 8, !tbaa !10
  %31 = fdiv double %30, 4.000000e+00
  %32 = call double @llvm.floor.f64(double %31)
  %33 = fadd double %29, %32
  store double %33, ptr %14, align 8, !tbaa !10
  %34 = load i32, ptr %7, align 4, !tbaa !19
  %35 = add nsw i32 %34, 4716
  %36 = sitofp i32 %35 to double
  %37 = fmul double 3.652500e+02, %36
  %38 = call double @llvm.floor.f64(double %37)
  %39 = load i32, ptr %8, align 4, !tbaa !19
  %40 = add nsw i32 %39, 1
  %41 = sitofp i32 %40 to double
  %42 = fmul double 3.060010e+01, %41
  %43 = call double @llvm.floor.f64(double %42)
  %44 = fadd double %38, %43
  %45 = load i32, ptr %9, align 4, !tbaa !19
  %46 = sitofp i32 %45 to double
  %47 = fadd double %44, %46
  %48 = load double, ptr %14, align 8, !tbaa !10
  %49 = fadd double %47, %48
  %50 = fsub double %49, 1.524000e+03
  store double %50, ptr %15, align 8, !tbaa !10
  %51 = load double, ptr %15, align 8, !tbaa !10
  %52 = load double, ptr %10, align 8, !tbaa !10
  %53 = fcmp olt double %51, %52
  br i1 %53, label %54, label %59

54:                                               ; preds = %23
  %55 = load double, ptr %14, align 8, !tbaa !10
  %56 = load double, ptr %15, align 8, !tbaa !10
  %57 = fsub double %56, %55
  store double %57, ptr %15, align 8, !tbaa !10
  %58 = load ptr, ptr %12, align 8, !tbaa !71
  store i32 0, ptr %58, align 4, !tbaa !19
  br label %61

59:                                               ; preds = %23
  %60 = load ptr, ptr %12, align 8, !tbaa !71
  store i32 1, ptr %60, align 4, !tbaa !19
  br label %61

61:                                               ; preds = %59, %54
  %62 = load double, ptr %15, align 8, !tbaa !10
  %63 = fptosi double %62 to i32
  %64 = load ptr, ptr %11, align 8, !tbaa !71
  store i32 %63, ptr %64, align 4, !tbaa !19
  call void @llvm.lifetime.end.p0(i64 8, ptr %15) #23
  call void @llvm.lifetime.end.p0(i64 8, ptr %14) #23
  call void @llvm.lifetime.end.p0(i64 8, ptr %13) #23
  ret void
}

; Function Attrs: inlinehint nounwind sspstrong uwtable
define internal void @get_c_jd(ptr noundef %0) #3 {
  %2 = alloca ptr, align 8
  %3 = alloca i32, align 4
  %4 = alloca i32, align 4
  store ptr %0, ptr %2, align 8, !tbaa !27
  %5 = load ptr, ptr %2, align 8, !tbaa !27
  %6 = load i32, ptr %5, align 8, !tbaa !38
  %7 = and i32 %6, 1
  %8 = icmp ne i32 %7, 0
  br i1 %8, label %53, label %9

9:                                                ; preds = %1
  call void @llvm.lifetime.start.p0(i64 4, ptr %3) #23
  call void @llvm.lifetime.start.p0(i64 4, ptr %4) #23
  %10 = load ptr, ptr %2, align 8, !tbaa !27
  %11 = getelementptr inbounds nuw %struct.ComplexDateData, ptr %10, i32 0, i32 4
  %12 = load i32, ptr %11, align 4, !tbaa !38
  %13 = load ptr, ptr %2, align 8, !tbaa !27
  %14 = getelementptr inbounds nuw %struct.ComplexDateData, ptr %13, i32 0, i32 5
  %15 = load i32, ptr %14, align 8, !tbaa !38
  %16 = lshr i32 %15, 22
  %17 = and i32 %16, 15
  %18 = load ptr, ptr %2, align 8, !tbaa !27
  %19 = getelementptr inbounds nuw %struct.ComplexDateData, ptr %18, i32 0, i32 5
  %20 = load i32, ptr %19, align 8, !tbaa !38
  %21 = lshr i32 %20, 17
  %22 = and i32 %21, 31
  %23 = load ptr, ptr %2, align 8, !tbaa !27
  %24 = call double @c_virtual_sg(ptr noundef %23)
  call void @c_civil_to_jd(i32 noundef %12, i32 noundef %17, i32 noundef %22, double noundef %24, ptr noundef %3, ptr noundef %4)
  %25 = load ptr, ptr %2, align 8, !tbaa !27
  call void @get_c_time(ptr noundef %25)
  %26 = load i32, ptr %3, align 4, !tbaa !19
  %27 = load ptr, ptr %2, align 8, !tbaa !27
  %28 = getelementptr inbounds nuw %struct.ComplexDateData, ptr %27, i32 0, i32 5
  %29 = load i32, ptr %28, align 8, !tbaa !38
  %30 = lshr i32 %29, 12
  %31 = and i32 %30, 31
  %32 = load ptr, ptr %2, align 8, !tbaa !27
  %33 = getelementptr inbounds nuw %struct.ComplexDateData, ptr %32, i32 0, i32 5
  %34 = load i32, ptr %33, align 8, !tbaa !38
  %35 = lshr i32 %34, 6
  %36 = and i32 %35, 63
  %37 = load ptr, ptr %2, align 8, !tbaa !27
  %38 = getelementptr inbounds nuw %struct.ComplexDateData, ptr %37, i32 0, i32 5
  %39 = load i32, ptr %38, align 8, !tbaa !38
  %40 = lshr i32 %39, 0
  %41 = and i32 %40, 63
  %42 = call i32 @time_to_df(i32 noundef %31, i32 noundef %36, i32 noundef %41)
  %43 = load ptr, ptr %2, align 8, !tbaa !27
  %44 = getelementptr inbounds nuw %struct.ComplexDateData, ptr %43, i32 0, i32 7
  %45 = load i32, ptr %44, align 8, !tbaa !38
  %46 = call i32 @jd_local_to_utc(i32 noundef %26, i32 noundef %42, i32 noundef %45)
  %47 = load ptr, ptr %2, align 8, !tbaa !27
  %48 = getelementptr inbounds nuw %struct.ComplexDateData, ptr %47, i32 0, i32 1
  store i32 %46, ptr %48, align 4, !tbaa !38
  %49 = load ptr, ptr %2, align 8, !tbaa !27
  %50 = getelementptr inbounds nuw %struct.ComplexDateData, ptr %49, i32 0, i32 0
  %51 = load i32, ptr %50, align 8, !tbaa !38
  %52 = or i32 %51, 1
  store i32 %52, ptr %50, align 8, !tbaa !38
  call void @llvm.lifetime.end.p0(i64 4, ptr %4) #23
  call void @llvm.lifetime.end.p0(i64 4, ptr %3) #23
  br label %53

53:                                               ; preds = %9, %1
  ret void
}