; Function Attrs: inlinehint nounwind sspstrong uwtable
define internal fastcc void @get_c_jd(ptr noundef captures(none) %0) unnamed_addr #5 {
  %2 = load i32, ptr %0, align 8, !tbaa !47
  %3 = and i32 %2, 1
  %.not = icmp eq i32 %3, 0
  br i1 %.not, label %4, label %80

4:                                                ; preds = %1
  %5 = getelementptr inbounds nuw i8, ptr %0, i64 20
  %6 = load i32, ptr %5, align 4, !tbaa !47
  %7 = getelementptr inbounds nuw i8, ptr %0, i64 24
  %8 = load i32, ptr %7, align 8, !tbaa !47
  %9 = lshr i32 %8, 22
  %10 = and i32 %9, 15
  %11 = lshr i32 %8, 17
  %12 = and i32 %11, 31
  %13 = tail call fastcc double @c_virtual_sg(ptr noundef nonnull %0)
  %14 = icmp samesign ult i32 %10, 3
  %15 = add nuw nsw i32 %10, 12
  %.018.i = select i1 %14, i32 %15, i32 %10
  %16 = sext i1 %14 to i32
  %.017.i = add nsw i32 %6, %16
  %17 = sitofp i32 %.017.i to double
  %18 = fdiv double %17, 1.000000e+02
  %19 = tail call double @llvm.floor.f64(double %18)
  %20 = fsub double 2.000000e+00, %19
  %21 = fmul double %19, 2.500000e-01
  %22 = tail call double @llvm.floor.f64(double %21)
  %23 = fadd double %20, %22
  %24 = add nsw i32 %.017.i, 4716
  %25 = sitofp i32 %24 to double
  %26 = fmul double %25, 3.652500e+02
  %27 = tail call double @llvm.floor.f64(double %26)
  %28 = add nuw nsw i32 %.018.i, 1
  %29 = uitofp nneg i32 %28 to double
  %30 = fmul double %29, 3.060010e+01
  %31 = tail call double @llvm.floor.f64(double %30)
  %32 = fadd double %31, %27
  %33 = uitofp nneg i32 %12 to double
  %34 = fadd double %32, %33
  %35 = fadd double %34, %23
  %36 = fadd double %35, -1.524000e+03
  %37 = fcmp uge double %36, %13
  %38 = fsub double %36, %23
  %.0.i = select i1 %37, double %36, double %38
  %39 = fptosi double %.0.i to i32
  %40 = load i32, ptr %0, align 8, !tbaa !47
  %41 = and i32 %40, 8
  %.not.i = icmp eq i32 %41, 0
  %.pre = load i32, ptr %7, align 8, !tbaa !47
  br i1 %.not.i, label %42, label %.get_c_time.exit_crit_edge

.get_c_time.exit_crit_edge:                       ; preds = %4
  %.phi.trans.insert = getelementptr inbounds nuw i8, ptr %0, i64 32
  %.pre13 = load i32, ptr %.phi.trans.insert, align 8, !tbaa !47
  br label %get_c_time.exit

42:                                               ; preds = %4
  %43 = getelementptr inbounds nuw i8, ptr %0, i64 28
  %44 = load i32, ptr %43, align 4, !tbaa !47
  %45 = getelementptr inbounds nuw i8, ptr %0, i64 32
  %46 = load i32, ptr %45, align 8, !tbaa !47
  %47 = add nsw i32 %46, %44
  %48 = icmp slt i32 %47, 0
  %49 = add nsw i32 %47, 86400
  %50 = icmp samesign ugt i32 %47, 86399
  %51 = add nsw i32 %47, -86400
  %spec.select.i.i = select i1 %50, i32 %51, i32 %47
  %.0.i.i = select i1 %48, i32 %49, i32 %spec.select.i.i
  %52 = sdiv i32 %.0.i.i, 3600
  %53 = srem i32 %.0.i.i, 3600
  %.lhs.trunc.i.i = trunc nsw i32 %53 to i16
  %54 = sdiv i16 %.lhs.trunc.i.i, 60
  %.sext.i.i = sext i16 %54 to i32
  %55 = srem i16 %.lhs.trunc.i.i, 60
  %.sext7.i.i = sext i16 %55 to i32
  %56 = and i32 %.pre, 66977792
  %57 = shl i32 %52, 12
  %58 = or i32 %57, %56
  %59 = shl nsw i32 %.sext.i.i, 6
  %60 = or i32 %58, %.sext7.i.i
  %61 = or i32 %60, %59
  store i32 %61, ptr %7, align 8, !tbaa !47
  %62 = or disjoint i32 %40, 8
  br label %get_c_time.exit

get_c_time.exit:                                  ; preds = %.get_c_time.exit_crit_edge, %42
  %63 = phi i32 [ %40, %.get_c_time.exit_crit_edge ], [ %62, %42 ]
  %64 = phi i32 [ %.pre13, %.get_c_time.exit_crit_edge ], [ %46, %42 ]
  %65 = phi i32 [ %.pre, %.get_c_time.exit_crit_edge ], [ %61, %42 ]
  %66 = lshr i32 %65, 12
  %67 = and i32 %66, 31
  %68 = lshr i32 %65, 6
  %69 = and i32 %68, 63
  %70 = and i32 %65, 63
  %71 = mul nuw nsw i32 %67, 3600
  %72 = mul nuw nsw i32 %69, 60
  %73 = sub i32 %70, %64
  %74 = add i32 %73, %71
  %75 = add i32 %74, %72
  %76 = icmp samesign ugt i32 %75, 86399
  %77 = zext i1 %76 to i32
  %.inv.i = icmp sgt i32 %75, -1
  %.0.v.i = select i1 %.inv.i, i32 %77, i32 -1
  %.0.i12 = add nsw i32 %.0.v.i, %39
  %78 = getelementptr inbounds nuw i8, ptr %0, i64 4
  store i32 %.0.i12, ptr %78, align 4, !tbaa !47
  %79 = or i32 %63, 1
  store i32 %79, ptr %0, align 8, !tbaa !47
  br label %80

80:                                               ; preds = %get_c_time.exit, %1
  ret void
}